; Function Attrs: mustprogress uwtable
define internal fastcc void @_ZN32pxrInternal_v0_24__pxrReserved__19Vt_ValueVisitDetail5VisitINS_7GfVec3hENS_12_GLOBAL__N_122_ComputeFlattenedValueEEEDaRKNS_7VtValueEOT0_z(ptr dead_on_unwind noalias writable sret(%"class.pxrInternal_v0_24__pxrReserved__::VtValue") align 8 %0, ptr noundef nonnull align 8 dereferenceable(16) %1) unnamed_addr #1 {
  %3 = alloca %"class.pxrInternal_v0_24__pxrReserved__::TfCallContext", align 8
  tail call void @llvm.experimental.noalias.scope.decl(metadata !462)
  call void @llvm.lifetime.start.p0(i64 40, ptr nonnull %3)
  store ptr @.str.21, ptr %3, align 8, !noalias !462
  %4 = getelementptr inbounds nuw i8, ptr %3, i64 8
  store ptr @__func__._ZN32pxrInternal_v0_24__pxrReserved__12_GLOBAL__N_122_ComputeFlattenedValueclERKNS_7VtValueE, ptr %4, align 8, !noalias !462
  %5 = getelementptr inbounds nuw i8, ptr %3, i64 16
  store i64 87, ptr %5, align 8, !noalias !462
  %6 = getelementptr inbounds nuw i8, ptr %3, i64 24
  store ptr @__PRETTY_FUNCTION__._ZN32pxrInternal_v0_24__pxrReserved__12_GLOBAL__N_122_ComputeFlattenedValueclERKNS_7VtValueE, ptr %6, align 8, !noalias !462
  %7 = getelementptr inbounds nuw i8, ptr %3, i64 32
  store i8 0, ptr %7, align 8, !noalias !462
  call void (ptr, ptr, ...) @_ZN32pxrInternal_v0_24__pxrReserved__20Tf_PostWarningHelperERKNS_13TfCallContextEPKcz(ptr noundef nonnull align 8 dereferenceable(33) %3, ptr noundef nonnull @.str.22), !noalias !462
  %8 = getelementptr inbounds nuw i8, ptr %0, i64 8
  store ptr null, ptr %8, align 8, !alias.scope !462
  call void @_ZN32pxrInternal_v0_24__pxrReserved__7VtValue5_CopyERKS0_RS0_(ptr noundef nonnull align 8 dereferenceable(16) %1, ptr noundef nonnull align 8 dereferenceable(16) %0)
  call void @llvm.lifetime.end.p0(i64 40, ptr nonnull %3)
  ret void
}